; Function Attrs: mustprogress uwtable
define hidden void @_ZN2cv3ccm8GetColor19getColorCheckerMASKEPKhi(ptr dead_on_unwind noalias nonnull writable sret(%"class.cv::Mat") align 8 %0, ptr nocapture noundef readonly %1, i32 noundef %2) local_unnamed_addr #0 align 2 personality ptr @__gxx_personality_v0 {
  tail call void @_ZN2cv3MatC1Eiii(ptr noundef nonnull align 8 dereferenceable(96) %0, i32 noundef %2, i32 noundef 1, i32 noundef 0)
  %4 = icmp sgt i32 %2, 0
  br i1 %4, label %.lr.ph, label %._crit_edge

.lr.ph:                                           ; preds = %3
  %5 = getelementptr inbounds i8, ptr %0, i64 16
  %6 = getelementptr inbounds i8, ptr %0, i64 72
  %wide.trip.count = zext nneg i32 %2 to i64
  br label %7

7:                                                ; preds = %.lr.ph, %7
  %indvars.iv = phi i64 [ 0, %.lr.ph ], [ %indvars.iv.next, %7 ]
  %8 = getelementptr inbounds i8, ptr %1, i64 %indvars.iv
  %9 = load i8, ptr %8, align 1
  %10 = load ptr, ptr %5, align 8
  %11 = load ptr, ptr %6, align 8
  %12 = load i64, ptr %11, align 8
  %13 = mul i64 %12, %indvars.iv
  %14 = getelementptr inbounds i8, ptr %10, i64 %13
  store i8 %9, ptr %14, align 1
  %indvars.iv.next = add nuw nsw i64 %indvars.iv, 1
  %exitcond.not = icmp eq i64 %indvars.iv.next, %wide.trip.count
  br i1 %exitcond.not, label %._crit_edge, label %7, !llvm.loop !20

._crit_edge:                                      ; preds = %7, %3
  ret void
}